Certificate:
    Data:
        Version: 3 (0x2)
        Serial Number: 1 (0x1)
    Signature Algorithm: sha256WithRSAEncryption
        Issuer: C=US, ST=Unset, L=Unset, O=Unset, CN=192.172.70.100
        Validity
            Not Before: Oct 12 09:18:38 2015 GMT
            Not After : Oct  9 09:18:38 2025 GMT
        Subject: C=US, ST=Unset, O=Unset, CN=192.172.70.100
        Subject Public Key Info:
            Public Key Algorithm: rsaEncryption
                Public-Key: (1024 bit)
                Modulus:
                    00:bf:d0:20:65:74:89:0f:56:8f:7f:e5:e6:69:63:
                    19:88:cd:0a:25:f0:6e:7b:7c:3f:6c:92:e9:99:64:
                    41:ae:7d:7b:6a:ae:63:54:b2:52:c4:a9:6f:d8:da:
                    7c:f5:d5:16:1f:f8:28:16:3a:7c:f8:80:41:01:d3:
                    4e:bd:f5:45:27:83:a3:28:81:16:8e:c1:c1:e4:a5:
                    1c:fa:1c:32:dc:3d:c1:77:34:a4:1c:66:71:6f:0d:
                    f5:44:1c:17:7e:c7:24:0c:2e:7e:58:66:5e:8b:e1:
                    06:0f:ae:c4:a1:18:96:76:a1:cb:bf:98:c8:a0:60:
                    9a:1a:3a:ba:ac:7d:57:79:4b
                Exponent: 65537 (0x10001)
        X509v3 extensions:
            X509v3 Basic Constraints: 
                CA:FALSE
            X509v3 Subject Key Identifier: 
                1A:7B:BF:69:7B:3A:03:61:B7:C8:01:4C:59:49:8C:B8:B5:36:40:0E
            X509v3 Authority Key Identifier: 
                keyid:6B:A0:61:81:6D:78:4C:C1:CE:55:62:CD:EB:39:B4:DB:E2:15:E1:99

    Signature Algorithm: sha256WithRSAEncryption
         85:f7:74:4a:cb:33:a5:9f:55:f5:d4:a8:7b:23:34:3c:b3:9a:
         46:ca:65:67:25:c5:ce:6d:54:e3:7f:34:07:c1:5d:37:c4:52:
         ea:22:a0:51:35:97:fd:73:7b:33:53:42:82:80:bd:8c:9a:51:
         e4:54:dd:46:e1:66:64:ee:f7:86:d9:33:b1:8a:51:bb:90:49:
         43:38:67:10:d9:5b:cf:83:63:9a:4a:b1:56:46:1a:82:62:7e:
         e2:ca:fa:c3:ee:84:a5:db:40:ce:55:68:96:b6:60:4c:3a:4a:
         b7:a0:95:d7:38:06:29:8f:c8:54:c3:ca:de:7b:8c:60:db:bd:
         88:74
-----BEGIN CERTIFICATE-----
MIICXzCCAcigAwIBAgIBATANBgkqhkiG9w0BAQsFADBWMQswCQYDVQQGEwJVUzEO
MAwGA1UECAwFVW5zZXQxDjAMBgNVBAcMBVVuc2V0MQ4wDAYDVQQKDAVVbnNldDEX
MBUGA1UEAwwOMTkyLjE3Mi43MC4xMDAwHhcNMTUxMDEyMDkxODM4WhcNMjUxMDA5
MDkxODM4WjBGMQswCQYDVQQGEwJVUzEOMAwGA1UECAwFVW5zZXQxDjAMBgNVBAoM
BVVuc2V0MRcwFQYDVQQDDA4xOTIuMTcyLjcwLjEwMDCBnzANBgkqhkiG9w0BAQEF
AAOBjQAwgYkCgYEAv9AgZXSJD1aPf+XmaWMZiM0KJfBue3w/bJLpmWRBrn17aq5j
VLJSxKlv2Np89dUWH/goFjp8+IBBAdNOvfVFJ4OjKIEWjsHB5KUc+hwy3D3BdzSk
HGZxbw31RBwXfsckDC5+WGZei+EGD67EoRiWdqHLv5jIoGCaGjq6rH1XeUsCAwEA
AaNNMEswCQYDVR0TBAIwADAdBgNVHQ4EFgQUGnu/aXs6A2G3yAFMWUmMuLU2QA4w
HwYDVR0jBBgwFoAUa6BhgW14TMHOVWLN6zm02+IV4ZkwDQYJKoZIhvcNAQELBQAD
gYEAhfd0SsszpZ9V9dSoeyM0PLOaRsplZyXFzm1U4380B8FdN8RS6iKgUTWX/XN7
M1NCgoC9jJpR5FTdRuFmZO73htkzsYpRu5BJQzhnENlbz4NjmkqxVkYagmJ+4sr6
w+6EpdtAzlVolrZgTDpKt6CV1zgGKY/IVMPK3nuMYNu9iHQ=
-----END CERTIFICATE-----
